target datalayout = "e-m:e-p270:32:32-p271:32:32-p272:64:64-i64:64-i128:128-f80:128-n8:16:32:64-S128"
target triple = "x86_64-pc-linux-gnu"

%struct.rb_transcoder = type { ptr, ptr, i32, ptr, i32, ptr, i32, i32, i32, i32, i32, i32, i64, ptr, ptr, ptr, ptr, ptr, ptr, ptr, ptr, ptr, ptr }
%struct.rb_econv_t = type { i32, i32, ptr, ptr, ptr, i64, ptr, ptr, ptr, ptr, ptr, ptr, i32, i32, i32, i32, ptr, %struct.anon, ptr, ptr }
%struct.anon = type { i32, ptr, ptr, ptr, ptr, i64, i64 }
%struct.rb_transcoding = type { ptr, i32, i32, i32, i64, i8, i32, i64, i64, %union.anon, i64, i64, %union.anon.0, %union.rb_transcoding_state_t }
%union.anon = type { ptr }
%union.anon.0 = type { ptr }
%union.rb_transcoding_state_t = type { ptr }

@.str.2 = private unnamed_addr constant [1 x i8] zeroinitializer, align 1

; Function Attrs: nounwind sspstrong uwtable
define dso_local ptr @rb_econv_encoding_to_insert_output(ptr noundef %0) #0 {
  %2 = alloca ptr, align 8
  %3 = alloca ptr, align 8
  %4 = alloca ptr, align 8
  %5 = alloca ptr, align 8
  %6 = alloca i32, align 4
  store ptr %0, ptr %3, align 8, !tbaa !30
  call void @llvm.lifetime.start.p0(i64 8, ptr %4) #25
  %7 = load ptr, ptr %3, align 8, !tbaa !30
  %8 = getelementptr inbounds nuw %struct.rb_econv_t, ptr %7, i32 0, i32 16
  %9 = load ptr, ptr %8, align 8, !tbaa !79
  store ptr %9, ptr %4, align 8, !tbaa !66
  call void @llvm.lifetime.start.p0(i64 8, ptr %5) #25
  %10 = load ptr, ptr %4, align 8, !tbaa !66
  %11 = icmp eq ptr %10, null
  br i1 %11, label %12, label %13

12:                                               ; preds = %1
  store ptr @.str.2, ptr %2, align 8
  store i32 1, ptr %6, align 4
  br label %29

13:                                               ; preds = %1
  %14 = load ptr, ptr %4, align 8, !tbaa !66
  %15 = getelementptr inbounds nuw %struct.rb_transcoding, ptr %14, i32 0, i32 0
  %16 = load ptr, ptr %15, align 8, !tbaa !51
  store ptr %16, ptr %5, align 8, !tbaa !14
  %17 = load ptr, ptr %5, align 8, !tbaa !14
  %18 = getelementptr inbounds nuw %struct.rb_transcoder, ptr %17, i32 0, i32 11
  %19 = load i32, ptr %18, align 4, !tbaa !53
  %20 = icmp eq i32 %19, 2
  br i1 %20, label %21, label %25

21:                                               ; preds = %13
  %22 = load ptr, ptr %5, align 8, !tbaa !14
  %23 = getelementptr inbounds nuw %struct.rb_transcoder, ptr %22, i32 0, i32 0
  %24 = load ptr, ptr %23, align 8, !tbaa !16
  store ptr %24, ptr %2, align 8
  store i32 1, ptr %6, align 4
  br label %29

25:                                               ; preds = %13
  %26 = load ptr, ptr %5, align 8, !tbaa !14
  %27 = getelementptr inbounds nuw %struct.rb_transcoder, ptr %26, i32 0, i32 1
  %28 = load ptr, ptr %27, align 8, !tbaa !22
  store ptr %28, ptr %2, align 8
  store i32 1, ptr %6, align 4
  br label %29

29:                                               ; preds = %25, %21, %12
  call void @llvm.lifetime.end.p0(i64 8, ptr %5) #25
  call void @llvm.lifetime.end.p0(i64 8, ptr %4) #25
  %30 = load ptr, ptr %2, align 8
  ret ptr %30
}