; Function Attrs: mustprogress nofree norecurse nosync nounwind sspstrong willreturn memory(read, inaccessiblemem: none) uwtable
define dso_local ptr @rb_econv_encoding_to_insert_output(ptr noundef readonly captures(none) %0) local_unnamed_addr #4 {
  %2 = getelementptr inbounds nuw i8, ptr %0, i64 104
  %3 = load ptr, ptr %2, align 8, !tbaa !49
  %4 = icmp eq ptr %3, null
  br i1 %4, label %15, label %5

5:                                                ; preds = %1
  %6 = load ptr, ptr %3, align 8, !tbaa !65
  %7 = getelementptr inbounds nuw i8, ptr %6, i64 68
  %8 = load i32, ptr %7, align 4, !tbaa !67
  %9 = icmp eq i32 %8, 2
  br i1 %9, label %10, label %12

10:                                               ; preds = %5
  %11 = load ptr, ptr %6, align 8, !tbaa !12
  br label %15

12:                                               ; preds = %5
  %13 = getelementptr inbounds nuw i8, ptr %6, i64 8
  %14 = load ptr, ptr %13, align 8, !tbaa !18
  br label %15

15:                                               ; preds = %1, %12, %10
  %.0 = phi ptr [ %11, %10 ], [ %14, %12 ], [ @.str.2, %1 ]
  ret ptr %.0
}